; Function Attrs: nounwind uwtable
define internal fastcc zeroext i1 @toastrel_valueid_exists(ptr noundef %0, i32 noundef %1) unnamed_addr #0 {
  %3 = alloca %struct.ScanKeyData, align 8
  %4 = alloca i32, align 4
  %5 = alloca ptr, align 8
  call void @llvm.lifetime.start.p0(i64 72, ptr nonnull %3) #7
  call void @llvm.lifetime.start.p0(i64 4, ptr nonnull %4) #7
  call void @llvm.lifetime.start.p0(i64 8, ptr nonnull %5) #7
  %6 = call i32 @toast_open_indexes(ptr noundef %0, i32 noundef 3, ptr noundef nonnull %5, ptr noundef nonnull %4)
  %7 = zext i32 %1 to i64
  call void @ScanKeyInit(ptr noundef nonnull %3, i16 noundef signext 1, i16 noundef zeroext 3, i32 noundef 184, i64 noundef %7) #7
  %8 = load ptr, ptr %5, align 8
  %9 = sext i32 %6 to i64
  %10 = getelementptr inbounds ptr, ptr %8, i64 %9
  %11 = load ptr, ptr %10, align 8
  %12 = getelementptr inbounds nuw i8, ptr %11, i64 72
  %13 = load i32, ptr %12, align 8
  %14 = call ptr @systable_beginscan(ptr noundef %0, i32 noundef %13, i1 noundef zeroext true, ptr noundef nonnull @SnapshotAnyData, i32 noundef 1, ptr noundef nonnull %3) #7
  %15 = call ptr @systable_getnext(ptr noundef %14) #7
  call void @systable_endscan(ptr noundef %14) #7
  %16 = load i32, ptr %4, align 4
  %17 = icmp sgt i32 %16, 0
  br i1 %17, label %.lr.ph.preheader.i, label %toast_close_indexes.exit

.lr.ph.preheader.i:                               ; preds = %2
  %wide.trip.count.i = zext nneg i32 %16 to i64
  br label %.lr.ph.i

.lr.ph.i:                                         ; preds = %.lr.ph.i, %.lr.ph.preheader.i
  %indvars.iv.i = phi i64 [ 0, %.lr.ph.preheader.i ], [ %indvars.iv.next.i, %.lr.ph.i ]
  %18 = getelementptr inbounds nuw ptr, ptr %8, i64 %indvars.iv.i
  %19 = load ptr, ptr %18, align 8
  call void @index_close(ptr noundef %19, i32 noundef 3) #7
  %indvars.iv.next.i = add nuw nsw i64 %indvars.iv.i, 1
  %exitcond.not.i = icmp eq i64 %indvars.iv.next.i, %wide.trip.count.i
  br i1 %exitcond.not.i, label %toast_close_indexes.exit, label %.lr.ph.i, !llvm.loop !11

toast_close_indexes.exit:                         ; preds = %.lr.ph.i, %2
  %.not = icmp ne ptr %15, null
  call void @pfree(ptr noundef nonnull %8) #7
  call void @llvm.lifetime.end.p0(i64 8, ptr nonnull %5) #7
  call void @llvm.lifetime.end.p0(i64 4, ptr nonnull %4) #7
  call void @llvm.lifetime.end.p0(i64 72, ptr nonnull %3) #7
  ret i1 %.not
}